target datalayout = "e-m:e-p270:32:32-p271:32:32-p272:64:64-i64:64-i128:128-f80:128-n8:16:32:64-S128"
target triple = "x86_64-pc-linux-gnu"

%struct.Abc_Ntk_t_ = type { i32, i32, ptr, ptr, ptr, ptr, ptr, ptr, ptr, ptr, ptr, ptr, ptr, [11 x i32], i32, i32, i32, i32, ptr, i32, ptr, ptr, i32, i32, i32, double, i32, %struct.Vec_Int_t_, ptr, ptr, ptr, ptr, ptr, float, i32, ptr, ptr, ptr, ptr, ptr, ptr, ptr, ptr, ptr, ptr, ptr, ptr, ptr, ptr, ptr, ptr, ptr, ptr, ptr, ptr, ptr, ptr }
%struct.Vec_Int_t_ = type { i32, i32, ptr }
%struct.Abc_Obj_t_ = type { ptr, ptr, i32, i32, %struct.Vec_Int_t_, %struct.Vec_Int_t_, %union.anon, %union.anon.0 }
%union.anon = type { ptr }
%union.anon.0 = type { ptr }
%struct.Vec_Ptr_t_ = type { i32, i32, ptr }

; Function Attrs: inlinehint nounwind uwtable
define internal i32 @Vec_IntSize(ptr noundef %0) #6 {
  %2 = alloca ptr, align 8
  store ptr %0, ptr %2, align 8, !tbaa !28
  %3 = load ptr, ptr %2, align 8, !tbaa !28
  %4 = getelementptr inbounds nuw %struct.Vec_Int_t_, ptr %3, i32 0, i32 1
  %5 = load i32, ptr %4, align 4, !tbaa !67
  ret i32 %5
}

; Function Attrs: inlinehint nounwind uwtable
define internal i32 @Abc_NtkHasMapping(ptr noundef %0) #6 {
  %2 = alloca ptr, align 8
  store ptr %0, ptr %2, align 8, !tbaa !26
  %3 = load ptr, ptr %2, align 8, !tbaa !26
  %4 = getelementptr inbounds nuw %struct.Abc_Ntk_t_, ptr %3, i32 0, i32 1
  %5 = load i32, ptr %4, align 4, !tbaa !63
  %6 = icmp eq i32 %5, 4
  %7 = zext i1 %6 to i32
  ret i32 %7
}

; Function Attrs: inlinehint nounwind uwtable
define internal ptr @Vec_PtrEntry(ptr noundef %0, i32 noundef %1) #6 {
  %3 = alloca ptr, align 8
  %4 = alloca i32, align 4
  store ptr %0, ptr %3, align 8, !tbaa !64
  store i32 %1, ptr %4, align 4, !tbaa !8
  %5 = load ptr, ptr %3, align 8, !tbaa !64
  %6 = getelementptr inbounds nuw %struct.Vec_Ptr_t_, ptr %5, i32 0, i32 2
  %7 = load ptr, ptr %6, align 8, !tbaa !93
  %8 = load i32, ptr %4, align 4, !tbaa !8
  %9 = sext i32 %8 to i64
  %10 = getelementptr inbounds ptr, ptr %7, i64 %9
  %11 = load ptr, ptr %10, align 8, !tbaa !94
  ret ptr %11
}

; Function Attrs: inlinehint nounwind uwtable
define internal i32 @Abc_ObjIsBarBuf(ptr noundef %0) #6 {
  %2 = alloca ptr, align 8
  store ptr %0, ptr %2, align 8, !tbaa !43
  %3 = load ptr, ptr %2, align 8, !tbaa !43
  %4 = getelementptr inbounds nuw %struct.Abc_Obj_t_, ptr %3, i32 0, i32 0
  %5 = load ptr, ptr %4, align 8, !tbaa !70
  %6 = call i32 @Abc_NtkHasMapping(ptr noundef %5)
  %7 = icmp ne i32 %6, 0
  br i1 %7, label %8, label %22

8:                                                ; preds = %1
  %9 = load ptr, ptr %2, align 8, !tbaa !43
  %10 = call i32 @Abc_ObjIsNode(ptr noundef %9)
  %11 = icmp ne i32 %10, 0
  br i1 %11, label %12, label %22

12:                                               ; preds = %8
  %13 = load ptr, ptr %2, align 8, !tbaa !43
  %14 = getelementptr inbounds nuw %struct.Abc_Obj_t_, ptr %13, i32 0, i32 4
  %15 = call i32 @Vec_IntSize(ptr noundef %14)
  %16 = icmp eq i32 %15, 1
  br i1 %16, label %17, label %22

17:                                               ; preds = %12
  %18 = load ptr, ptr %2, align 8, !tbaa !43
  %19 = getelementptr inbounds nuw %struct.Abc_Obj_t_, ptr %18, i32 0, i32 6
  %20 = load ptr, ptr %19, align 8, !tbaa !12
  %21 = icmp eq ptr %20, null
  br label %22

22:                                               ; preds = %17, %12, %8, %1
  %23 = phi i1 [ false, %12 ], [ false, %8 ], [ false, %1 ], [ %21, %17 ]
  %24 = zext i1 %23 to i32
  ret i32 %24
}

; Function Attrs: inlinehint nounwind uwtable
define internal i32 @Abc_ObjIsNode(ptr noundef %0) #6 {
  %2 = alloca ptr, align 8
  store ptr %0, ptr %2, align 8, !tbaa !43
  %3 = load ptr, ptr %2, align 8, !tbaa !43
  %4 = getelementptr inbounds nuw %struct.Abc_Obj_t_, ptr %3, i32 0, i32 3
  %5 = load i32, ptr %4, align 4
  %6 = and i32 %5, 15
  %7 = icmp eq i32 %6, 7
  %8 = zext i1 %7 to i32
  ret i32 %8
}

; Function Attrs: inlinehint nounwind uwtable
define internal ptr @Abc_NtkObj(ptr noundef %0, i32 noundef %1) #6 {
  %3 = alloca ptr, align 8
  %4 = alloca i32, align 4
  store ptr %0, ptr %3, align 8, !tbaa !26
  store i32 %1, ptr %4, align 4, !tbaa !8
  %5 = load ptr, ptr %3, align 8, !tbaa !26
  %6 = getelementptr inbounds nuw %struct.Abc_Ntk_t_, ptr %5, i32 0, i32 5
  %7 = load ptr, ptr %6, align 8, !tbaa !30
  %8 = load i32, ptr %4, align 4, !tbaa !8
  %9 = call ptr @Vec_PtrEntry(ptr noundef %7, i32 noundef %8)
  ret ptr %9
}

; Function Attrs: inlinehint nounwind uwtable
define internal i32 @Vec_PtrSize(ptr noundef %0) #6 {
  %2 = alloca ptr, align 8
  store ptr %0, ptr %2, align 8, !tbaa !64
  %3 = load ptr, ptr %2, align 8, !tbaa !64
  %4 = getelementptr inbounds nuw %struct.Vec_Ptr_t_, ptr %3, i32 0, i32 1
  %5 = load i32, ptr %4, align 4, !tbaa !65
  ret i32 %5
}

; Function Attrs: nounwind uwtable
define i32 @Abc_NtkMapToSopUsingLibrary(ptr noundef %0, ptr noundef %1) #0 {
  %3 = alloca ptr, align 8
  %4 = alloca ptr, align 8
  %5 = alloca ptr, align 8
  %6 = alloca ptr, align 8
  %7 = alloca i32, align 4
  store ptr %0, ptr %3, align 8, !tbaa !26
  store ptr %1, ptr %4, align 8, !tbaa !94
  call void @llvm.lifetime.start.p0(i64 8, ptr %5) #10
  call void @llvm.lifetime.start.p0(i64 8, ptr %6) #10
  call void @llvm.lifetime.start.p0(i64 4, ptr %7) #10
  %8 = call ptr (...) @Mem_FlexStart()
  %9 = load ptr, ptr %3, align 8, !tbaa !26
  %10 = getelementptr inbounds nuw %struct.Abc_Ntk_t_, ptr %9, i32 0, i32 30
  store ptr %8, ptr %10, align 8, !tbaa !62
  store i32 0, ptr %7, align 4, !tbaa !8
  br label %11

11:                                               ; preds = %50, %2
  %12 = load i32, ptr %7, align 4, !tbaa !8
  %13 = load ptr, ptr %3, align 8, !tbaa !26
  %14 = getelementptr inbounds nuw %struct.Abc_Ntk_t_, ptr %13, i32 0, i32 5
  %15 = load ptr, ptr %14, align 8, !tbaa !30
  %16 = call i32 @Vec_PtrSize(ptr noundef %15)
  %17 = icmp slt i32 %12, %16
  br i1 %17, label %18, label %22

18:                                               ; preds = %11
  %19 = load ptr, ptr %3, align 8, !tbaa !26
  %20 = load i32, ptr %7, align 4, !tbaa !8
  %21 = call ptr @Abc_NtkObj(ptr noundef %19, i32 noundef %20)
  store ptr %21, ptr %5, align 8, !tbaa !43
  br label %22

22:                                               ; preds = %18, %11
  %23 = phi i1 [ false, %11 ], [ true, %18 ]
  br i1 %23, label %24, label %53

24:                                               ; preds = %22
  %25 = load ptr, ptr %5, align 8, !tbaa !43
  %26 = icmp eq ptr %25, null
  br i1 %26, label %31, label %27

27:                                               ; preds = %24
  %28 = load ptr, ptr %5, align 8, !tbaa !43
  %29 = call i32 @Abc_ObjIsNode(ptr noundef %28)
  %30 = icmp ne i32 %29, 0
  br i1 %30, label %32, label %31

31:                                               ; preds = %27, %24
  br label %49

32:                                               ; preds = %27
  %33 = load ptr, ptr %5, align 8, !tbaa !43
  %34 = call i32 @Abc_ObjIsBarBuf(ptr noundef %33)
  %35 = icmp ne i32 %34, 0
  br i1 %35, label %36, label %37

36:                                               ; preds = %32
  br label %50

37:                                               ; preds = %32
  %38 = load ptr, ptr %5, align 8, !tbaa !43
  %39 = getelementptr inbounds nuw %struct.Abc_Obj_t_, ptr %38, i32 0, i32 6
  %40 = load ptr, ptr %39, align 8, !tbaa !12
  %41 = call ptr @Mio_GateReadSop(ptr noundef %40)
  store ptr %41, ptr %6, align 8, !tbaa !3
  %42 = load ptr, ptr %3, align 8, !tbaa !26
  %43 = getelementptr inbounds nuw %struct.Abc_Ntk_t_, ptr %42, i32 0, i32 30
  %44 = load ptr, ptr %43, align 8, !tbaa !62
  %45 = load ptr, ptr %6, align 8, !tbaa !3
  %46 = call ptr @Abc_SopRegister(ptr noundef %44, ptr noundef %45)
  %47 = load ptr, ptr %5, align 8, !tbaa !43
  %48 = getelementptr inbounds nuw %struct.Abc_Obj_t_, ptr %47, i32 0, i32 6
  store ptr %46, ptr %48, align 8, !tbaa !12
  br label %49

49:                                               ; preds = %37, %31
  br label %50

50:                                               ; preds = %49, %36
  %51 = load i32, ptr %7, align 4, !tbaa !8
  %52 = add nsw i32 %51, 1
  store i32 %52, ptr %7, align 4, !tbaa !8
  br label %11, !llvm.loop !158

53:                                               ; preds = %22
  %54 = load ptr, ptr %3, align 8, !tbaa !26
  %55 = getelementptr inbounds nuw %struct.Abc_Ntk_t_, ptr %54, i32 0, i32 1
  store i32 1, ptr %55, align 4, !tbaa !63
  call void @llvm.lifetime.end.p0(i64 4, ptr %7) #10
  call void @llvm.lifetime.end.p0(i64 8, ptr %6) #10
  call void @llvm.lifetime.end.p0(i64 8, ptr %5) #10
  ret i32 1
}

; Function Attrs: nounwind uwtable
define i32 @Abc_NtkMapToSop(ptr noundef %0) #0 {
  %2 = alloca ptr, align 8
  store ptr %0, ptr %2, align 8, !tbaa !26
  %3 = load ptr, ptr %2, align 8, !tbaa !26
  %4 = call ptr (...) @Abc_FrameReadLibGen()
  %5 = call i32 @Abc_NtkMapToSopUsingLibrary(ptr noundef %3, ptr noundef %4)
  ret i32 %5
}